target datalayout = "e-m:e-p270:32:32-p271:32:32-p272:64:64-i64:64-i128:128-f80:128-n8:16:32:64-S128"
target triple = "x86_64-pc-linux-gnu"

; Function Attrs: nounwind uwtable
define hidden void @_mi_strlcpy(ptr noundef %0, ptr noundef %1, i64 noundef %2) #0 {
  %4 = alloca ptr, align 8
  %5 = alloca ptr, align 8
  %6 = alloca i64, align 8
  store ptr %0, ptr %4, align 8, !tbaa !6
  store ptr %1, ptr %5, align 8, !tbaa !6
  store i64 %2, ptr %6, align 8, !tbaa !9
  %7 = load ptr, ptr %4, align 8, !tbaa !6
  %8 = icmp eq ptr %7, null
  br i1 %8, label %15, label %9

9:                                                ; preds = %3
  %10 = load ptr, ptr %5, align 8, !tbaa !6
  %11 = icmp eq ptr %10, null
  br i1 %11, label %15, label %12

12:                                               ; preds = %9
  %13 = load i64, ptr %6, align 8, !tbaa !9
  %14 = icmp eq i64 %13, 0
  br i1 %14, label %15, label %16

15:                                               ; preds = %12, %9, %3
  br label %37

16:                                               ; preds = %12
  br label %17

17:                                               ; preds = %27, %16
  %18 = load ptr, ptr %5, align 8, !tbaa !6
  %19 = load i8, ptr %18, align 1, !tbaa !3
  %20 = sext i8 %19 to i32
  %21 = icmp ne i32 %20, 0
  br i1 %21, label %22, label %25

22:                                               ; preds = %17
  %23 = load i64, ptr %6, align 8, !tbaa !9
  %24 = icmp ugt i64 %23, 1
  br label %25

25:                                               ; preds = %22, %17
  %26 = phi i1 [ false, %17 ], [ %24, %22 ]
  br i1 %26, label %27, label %35

27:                                               ; preds = %25
  %28 = load ptr, ptr %5, align 8, !tbaa !6
  %29 = getelementptr inbounds nuw i8, ptr %28, i32 1
  store ptr %29, ptr %5, align 8, !tbaa !6
  %30 = load i8, ptr %28, align 1, !tbaa !3
  %31 = load ptr, ptr %4, align 8, !tbaa !6
  %32 = getelementptr inbounds nuw i8, ptr %31, i32 1
  store ptr %32, ptr %4, align 8, !tbaa !6
  store i8 %30, ptr %31, align 1, !tbaa !3
  %33 = load i64, ptr %6, align 8, !tbaa !9
  %34 = add i64 %33, -1
  store i64 %34, ptr %6, align 8, !tbaa !9
  br label %17, !llvm.loop !13

35:                                               ; preds = %25
  %36 = load ptr, ptr %4, align 8, !tbaa !6
  store i8 0, ptr %36, align 1, !tbaa !3
  br label %37

37:                                               ; preds = %35, %15
  ret void
}