; Function Attrs: nofree norecurse nosync nounwind memory(argmem: readwrite) uwtable
define hidden void @_mi_strlcpy(ptr noundef writeonly %0, ptr noundef readonly %1, i64 noundef %2) local_unnamed_addr #2 {
  %4 = icmp eq ptr %0, null
  %5 = icmp eq ptr %1, null
  %or.cond = or i1 %4, %5
  %6 = icmp eq i64 %2, 0
  %or.cond3 = or i1 %or.cond, %6
  br i1 %or.cond3, label %19, label %.preheader

.preheader:                                       ; preds = %3
  %7 = load i8, ptr %1, align 1, !tbaa !3
  %8 = icmp ne i8 %7, 0
  %9 = icmp ugt i64 %2, 1
  %10 = and i1 %8, %9
  br i1 %10, label %.lr.ph, label %._crit_edge

.lr.ph:                                           ; preds = %.preheader, %.lr.ph
  %11 = phi i8 [ %15, %.lr.ph ], [ %7, %.preheader ]
  %.018 = phi i64 [ %14, %.lr.ph ], [ %2, %.preheader ]
  %.01117 = phi ptr [ %12, %.lr.ph ], [ %1, %.preheader ]
  %.01216 = phi ptr [ %13, %.lr.ph ], [ %0, %.preheader ]
  %12 = getelementptr inbounds nuw i8, ptr %.01117, i64 1
  %13 = getelementptr inbounds nuw i8, ptr %.01216, i64 1
  store i8 %11, ptr %.01216, align 1, !tbaa !3
  %14 = add i64 %.018, -1
  %15 = load i8, ptr %12, align 1, !tbaa !3
  %16 = icmp ne i8 %15, 0
  %17 = icmp ugt i64 %14, 1
  %18 = select i1 %16, i1 %17, i1 false
  br i1 %18, label %.lr.ph, label %._crit_edge, !llvm.loop !8

._crit_edge:                                      ; preds = %.lr.ph, %.preheader
  %.012.lcssa = phi ptr [ %0, %.preheader ], [ %13, %.lr.ph ]
  store i8 0, ptr %.012.lcssa, align 1, !tbaa !3
  br label %19

19:                                               ; preds = %3, %._crit_edge
  ret void
}